target datalayout = "e-m:e-p270:32:32-p271:32:32-p272:64:64-i64:64-i128:128-f80:128-n8:16:32:64-S128"
target triple = "x86_64-pc-linux-gnu"

%"struct.faiss::InvertedLists.base" = type <{ ptr, i64, i64, i8 }>
%"struct.faiss::HStackInvertedLists" = type { %"struct.faiss::ReadOnlyInvertedLists.base", %"class.std::vector.25" }
%"struct.faiss::ReadOnlyInvertedLists.base" = type { %"struct.faiss::InvertedLists.base" }
%"class.std::vector.25" = type { %"struct.std::_Vector_base.26" }
%"struct.std::_Vector_base.26" = type { %"struct.std::_Vector_base<const faiss::InvertedLists *, std::allocator<const faiss::InvertedLists *>>::_Vector_impl" }
%"struct.std::_Vector_base<const faiss::InvertedLists *, std::allocator<const faiss::InvertedLists *>>::_Vector_impl" = type { %"struct.std::_Vector_base<const faiss::InvertedLists *, std::allocator<const faiss::InvertedLists *>>::_Vector_impl_data" }
%"struct.std::_Vector_base<const faiss::InvertedLists *, std::allocator<const faiss::InvertedLists *>>::_Vector_impl_data" = type { ptr, ptr, ptr }
%"struct.faiss::InvertedLists::ScopedIds" = type { ptr, ptr, i64 }

; Function Attrs: mustprogress nounwind uwtable
define linkonce_odr void @_ZN5faiss13InvertedLists9ScopedIdsD2Ev(ptr noundef nonnull align 8 dereferenceable(24) %0) unnamed_addr #1 comdat align 2 personality ptr @__gxx_personality_v0 {
  %2 = alloca ptr, align 8
  store ptr %0, ptr %2, align 8, !tbaa !72
  %3 = load ptr, ptr %2, align 8
  %4 = getelementptr inbounds nuw %"struct.faiss::InvertedLists::ScopedIds", ptr %3, i32 0, i32 0
  %5 = load ptr, ptr %4, align 8, !tbaa !74
  %6 = getelementptr inbounds nuw %"struct.faiss::InvertedLists::ScopedIds", ptr %3, i32 0, i32 2
  %7 = load i64, ptr %6, align 8, !tbaa !77
  %8 = getelementptr inbounds nuw %"struct.faiss::InvertedLists::ScopedIds", ptr %3, i32 0, i32 1
  %9 = load ptr, ptr %8, align 8, !tbaa !76
  %10 = load ptr, ptr %5, align 8, !tbaa !17
  %11 = getelementptr inbounds ptr, ptr %10, i64 6
  %12 = load ptr, ptr %11, align 8
  invoke void %12(ptr noundef nonnull align 8 dereferenceable(25) %5, i64 noundef %7, ptr noundef %9)
          to label %13 unwind label %14

13:                                               ; preds = %1
  ret void

14:                                               ; preds = %1
  %15 = landingpad { ptr, i32 }
          catch ptr null
  %16 = extractvalue { ptr, i32 } %15, 0
  call void @__clang_call_terminate(ptr %16) #19
  unreachable
}

; Function Attrs: mustprogress nounwind uwtable
define linkonce_odr noundef ptr @_ZN5faiss13InvertedLists9ScopedIds3getEv(ptr noundef nonnull align 8 dereferenceable(24) %0) #1 comdat align 2 {
  %2 = alloca ptr, align 8
  store ptr %0, ptr %2, align 8, !tbaa !72
  %3 = load ptr, ptr %2, align 8
  %4 = getelementptr inbounds nuw %"struct.faiss::InvertedLists::ScopedIds", ptr %3, i32 0, i32 1
  %5 = load ptr, ptr %4, align 8, !tbaa !76
  ret ptr %5
}

; Function Attrs: mustprogress uwtable
define linkonce_odr void @_ZN5faiss13InvertedLists9ScopedIdsC2EPKS0_m(ptr noundef nonnull align 8 dereferenceable(24) %0, ptr noundef %1, i64 noundef %2) unnamed_addr #2 comdat align 2 {
  %4 = alloca ptr, align 8
  %5 = alloca ptr, align 8
  %6 = alloca i64, align 8
  store ptr %0, ptr %4, align 8, !tbaa !72
  store ptr %1, ptr %5, align 8, !tbaa !9
  store i64 %2, ptr %6, align 8, !tbaa !11
  %7 = load ptr, ptr %4, align 8
  %8 = getelementptr inbounds nuw %"struct.faiss::InvertedLists::ScopedIds", ptr %7, i32 0, i32 0
  %9 = load ptr, ptr %5, align 8, !tbaa !9
  store ptr %9, ptr %8, align 8, !tbaa !74
  %10 = getelementptr inbounds nuw %"struct.faiss::InvertedLists::ScopedIds", ptr %7, i32 0, i32 1
  %11 = load ptr, ptr %5, align 8, !tbaa !9
  %12 = load i64, ptr %6, align 8, !tbaa !11
  %13 = load ptr, ptr %11, align 8, !tbaa !17
  %14 = getelementptr inbounds ptr, ptr %13, i64 4
  %15 = load ptr, ptr %14, align 8
  %16 = call noundef ptr %15(ptr noundef nonnull align 8 dereferenceable(25) %11, i64 noundef %12)
  store ptr %16, ptr %10, align 8, !tbaa !76
  %17 = getelementptr inbounds nuw %"struct.faiss::InvertedLists::ScopedIds", ptr %7, i32 0, i32 2
  %18 = load i64, ptr %6, align 8, !tbaa !11
  store i64 %18, ptr %17, align 8, !tbaa !77
  ret void
}

; Function Attrs: mustprogress nounwind uwtable
define linkonce_odr noundef nonnull align 8 dereferenceable(8) ptr @_ZNKSt6vectorIPKN5faiss13InvertedListsESaIS3_EEixEm(ptr noundef nonnull align 8 dereferenceable(24) %0, i64 noundef %1) #1 comdat align 2 {
  %3 = alloca ptr, align 8
  %4 = alloca i64, align 8
  store ptr %0, ptr %3, align 8, !tbaa !249
  store i64 %1, ptr %4, align 8, !tbaa !11
  %5 = load ptr, ptr %3, align 8
  %6 = getelementptr inbounds nuw %"struct.std::_Vector_base.26", ptr %5, i32 0, i32 0
  %7 = getelementptr inbounds nuw %"struct.std::_Vector_base<const faiss::InvertedLists *, std::allocator<const faiss::InvertedLists *>>::_Vector_impl_data", ptr %6, i32 0, i32 0
  %8 = load ptr, ptr %7, align 8, !tbaa !254
  %9 = load i64, ptr %4, align 8, !tbaa !11
  %10 = getelementptr inbounds nuw ptr, ptr %8, i64 %9
  ret ptr %10
}

; Function Attrs: mustprogress nounwind uwtable
define linkonce_odr noundef i64 @_ZNKSt6vectorIPKN5faiss13InvertedListsESaIS3_EE4sizeEv(ptr noundef nonnull align 8 dereferenceable(24) %0) #1 comdat align 2 {
  %2 = alloca ptr, align 8
  store ptr %0, ptr %2, align 8, !tbaa !249
  %3 = load ptr, ptr %2, align 8
  %4 = getelementptr inbounds nuw %"struct.std::_Vector_base.26", ptr %3, i32 0, i32 0
  %5 = getelementptr inbounds nuw %"struct.std::_Vector_base<const faiss::InvertedLists *, std::allocator<const faiss::InvertedLists *>>::_Vector_impl_data", ptr %4, i32 0, i32 1
  %6 = load ptr, ptr %5, align 8, !tbaa !251
  %7 = getelementptr inbounds nuw %"struct.std::_Vector_base.26", ptr %3, i32 0, i32 0
  %8 = getelementptr inbounds nuw %"struct.std::_Vector_base<const faiss::InvertedLists *, std::allocator<const faiss::InvertedLists *>>::_Vector_impl_data", ptr %7, i32 0, i32 0
  %9 = load ptr, ptr %8, align 8, !tbaa !254
  %10 = ptrtoint ptr %6 to i64
  %11 = ptrtoint ptr %9 to i64
  %12 = sub i64 %10, %11
  %13 = sdiv exact i64 %12, 8
  ret i64 %13
}

; Function Attrs: mustprogress uwtable
define noundef ptr @_ZNK5faiss19HStackInvertedLists7get_idsEm(ptr noundef nonnull align 8 dereferenceable(56) %0, i64 noundef %1) unnamed_addr #2 align 2 {
  %3 = alloca ptr, align 8
  %4 = alloca i64, align 8
  %5 = alloca ptr, align 8
  %6 = alloca ptr, align 8
  %7 = alloca i32, align 4
  %8 = alloca ptr, align 8
  %9 = alloca i64, align 8
  %10 = alloca %"struct.faiss::InvertedLists::ScopedIds", align 8
  store ptr %0, ptr %3, align 8, !tbaa !35
  store i64 %1, ptr %4, align 8, !tbaa !11
  %11 = load ptr, ptr %3, align 8
  call void @llvm.lifetime.start.p0(i64 8, ptr %5) #6
  %12 = load i64, ptr %4, align 8, !tbaa !11
  %13 = load ptr, ptr %11, align 8, !tbaa !17
  %14 = getelementptr inbounds ptr, ptr %13, i64 2
  %15 = load ptr, ptr %14, align 8
  %16 = call noundef i64 %15(ptr noundef nonnull align 8 dereferenceable(56) %11, i64 noundef %12)
  %17 = call { i64, i1 } @llvm.umul.with.overflow.i64(i64 %16, i64 8)
  %18 = extractvalue { i64, i1 } %17, 1
  %19 = extractvalue { i64, i1 } %17, 0
  %20 = select i1 %18, i64 -1, i64 %19
  %21 = call noalias noundef nonnull ptr @_Znam(i64 noundef %20) #21
  store ptr %21, ptr %5, align 8, !tbaa !15
  call void @llvm.lifetime.start.p0(i64 8, ptr %6) #6
  %22 = load ptr, ptr %5, align 8, !tbaa !15
  store ptr %22, ptr %6, align 8, !tbaa !15
  call void @llvm.lifetime.start.p0(i64 4, ptr %7) #6
  store i32 0, ptr %7, align 4, !tbaa !22
  br label %23

23:                                               ; preds = %55, %2
  %24 = load i32, ptr %7, align 4, !tbaa !22
  %25 = sext i32 %24 to i64
  %26 = getelementptr inbounds nuw %"struct.faiss::HStackInvertedLists", ptr %11, i32 0, i32 1
  %27 = call noundef i64 @_ZNKSt6vectorIPKN5faiss13InvertedListsESaIS3_EE4sizeEv(ptr noundef nonnull align 8 dereferenceable(24) %26) #6
  %28 = icmp ult i64 %25, %27
  br i1 %28, label %30, label %29

29:                                               ; preds = %23
  call void @llvm.lifetime.end.p0(i64 4, ptr %7) #6
  br label %58

30:                                               ; preds = %23
  call void @llvm.lifetime.start.p0(i64 8, ptr %8) #6
  %31 = getelementptr inbounds nuw %"struct.faiss::HStackInvertedLists", ptr %11, i32 0, i32 1
  %32 = load i32, ptr %7, align 4, !tbaa !22
  %33 = sext i32 %32 to i64
  %34 = call noundef nonnull align 8 dereferenceable(8) ptr @_ZNKSt6vectorIPKN5faiss13InvertedListsESaIS3_EEixEm(ptr noundef nonnull align 8 dereferenceable(24) %31, i64 noundef %33) #6
  %35 = load ptr, ptr %34, align 8, !tbaa !9
  store ptr %35, ptr %8, align 8, !tbaa !9
  call void @llvm.lifetime.start.p0(i64 8, ptr %9) #6
  %36 = load ptr, ptr %8, align 8, !tbaa !9
  %37 = load i64, ptr %4, align 8, !tbaa !11
  %38 = load ptr, ptr %36, align 8, !tbaa !17
  %39 = getelementptr inbounds ptr, ptr %38, i64 2
  %40 = load ptr, ptr %39, align 8
  %41 = call noundef i64 %40(ptr noundef nonnull align 8 dereferenceable(25) %36, i64 noundef %37)
  store i64 %41, ptr %9, align 8, !tbaa !11
  %42 = load i64, ptr %9, align 8, !tbaa !11
  %43 = icmp ugt i64 %42, 0
  br i1 %43, label %44, label %54

44:                                               ; preds = %30
  %45 = load ptr, ptr %6, align 8, !tbaa !15
  call void @llvm.lifetime.start.p0(i64 24, ptr %10) #6
  %46 = load ptr, ptr %8, align 8, !tbaa !9
  %47 = load i64, ptr %4, align 8, !tbaa !11
  call void @_ZN5faiss13InvertedLists9ScopedIdsC2EPKS0_m(ptr noundef nonnull align 8 dereferenceable(24) %10, ptr noundef %46, i64 noundef %47)
  %48 = call noundef ptr @_ZN5faiss13InvertedLists9ScopedIds3getEv(ptr noundef nonnull align 8 dereferenceable(24) %10)
  %49 = load i64, ptr %9, align 8, !tbaa !11
  %50 = mul i64 %49, 8
  call void @llvm.memcpy.p0.p0.i64(ptr align 8 %45, ptr align 8 %48, i64 %50, i1 false)
  call void @_ZN5faiss13InvertedLists9ScopedIdsD2Ev(ptr noundef nonnull align 8 dereferenceable(24) %10) #6
  call void @llvm.lifetime.end.p0(i64 24, ptr %10) #6
  %51 = load i64, ptr %9, align 8, !tbaa !11
  %52 = load ptr, ptr %6, align 8, !tbaa !15
  %53 = getelementptr inbounds nuw i64, ptr %52, i64 %51
  store ptr %53, ptr %6, align 8, !tbaa !15
  br label %54

54:                                               ; preds = %44, %30
  call void @llvm.lifetime.end.p0(i64 8, ptr %9) #6
  call void @llvm.lifetime.end.p0(i64 8, ptr %8) #6
  br label %55

55:                                               ; preds = %54
  %56 = load i32, ptr %7, align 4, !tbaa !22
  %57 = add nsw i32 %56, 1
  store i32 %57, ptr %7, align 4, !tbaa !22
  br label %23, !llvm.loop !39

58:                                               ; preds = %29
  %59 = load ptr, ptr %5, align 8, !tbaa !15
  call void @llvm.lifetime.end.p0(i64 8, ptr %6) #6
  call void @llvm.lifetime.end.p0(i64 8, ptr %5) #6
  ret ptr %59
}