; Function Attrs: mustprogress uwtable
define noundef nonnull ptr @_ZNK5faiss19HStackInvertedLists7get_idsEm(ptr noundef nonnull align 8 dereferenceable(56) %0, i64 noundef %1) unnamed_addr #2 align 2 personality ptr @__gxx_personality_v0 {
  %3 = load ptr, ptr %0, align 8, !tbaa !4
  %4 = getelementptr inbounds nuw i8, ptr %3, i64 16
  %5 = load ptr, ptr %4, align 8
  %6 = tail call noundef i64 %5(ptr noundef nonnull align 8 dereferenceable(56) %0, i64 noundef %1)
  %7 = icmp ugt i64 %6, 2305843009213693951
  %8 = shl nuw i64 %6, 3
  %9 = select i1 %7, i64 -1, i64 %8
  %10 = tail call noalias noundef nonnull ptr @_Znam(i64 noundef %9) #32
  %11 = getelementptr inbounds nuw i8, ptr %0, i64 32
  %12 = getelementptr inbounds nuw i8, ptr %0, i64 40
  %13 = load ptr, ptr %12, align 8, !tbaa !57
  %14 = load ptr, ptr %11, align 8, !tbaa !53
  %.not21 = icmp eq ptr %13, %14
  br i1 %.not21, label %._crit_edge, label %.lr.ph

._crit_edge:                                      ; preds = %35, %2
  ret ptr %10

.lr.ph:                                           ; preds = %2, %35
  %indvars.iv = phi i64 [ %indvars.iv.next, %35 ], [ 0, %2 ]
  %15 = phi ptr [ %37, %35 ], [ %14, %2 ]
  %.020 = phi ptr [ %.1, %35 ], [ %10, %2 ]
  %16 = getelementptr inbounds nuw ptr, ptr %15, i64 %indvars.iv
  %17 = load ptr, ptr %16, align 8, !tbaa !58
  %18 = load ptr, ptr %17, align 8, !tbaa !4
  %19 = getelementptr inbounds nuw i8, ptr %18, i64 16
  %20 = load ptr, ptr %19, align 8
  %21 = tail call noundef i64 %20(ptr noundef nonnull align 8 dereferenceable(25) %17, i64 noundef %1)
  %.not = icmp eq i64 %21, 0
  br i1 %.not, label %35, label %22

22:                                               ; preds = %.lr.ph
  %23 = load ptr, ptr %17, align 8, !tbaa !4
  %24 = getelementptr inbounds nuw i8, ptr %23, i64 32
  %25 = load ptr, ptr %24, align 8
  %26 = tail call noundef ptr %25(ptr noundef nonnull align 8 dereferenceable(25) %17, i64 noundef %1)
  %27 = shl i64 %21, 3
  tail call void @llvm.memcpy.p0.p0.i64(ptr align 8 %.020, ptr align 8 %26, i64 %27, i1 false)
  %28 = load ptr, ptr %17, align 8, !tbaa !4
  %29 = getelementptr inbounds nuw i8, ptr %28, i64 48
  %30 = load ptr, ptr %29, align 8
  invoke void %30(ptr noundef nonnull align 8 dereferenceable(25) %17, i64 noundef %1, ptr noundef %26)
          to label %_ZN5faiss13InvertedLists9ScopedIdsD2Ev.exit unwind label %31

31:                                               ; preds = %22
  %32 = landingpad { ptr, i32 }
          catch ptr null
  %33 = extractvalue { ptr, i32 } %32, 0
  tail call void @__clang_call_terminate(ptr %33) #29
  unreachable

_ZN5faiss13InvertedLists9ScopedIdsD2Ev.exit:      ; preds = %22
  %34 = getelementptr inbounds nuw i64, ptr %.020, i64 %21
  br label %35

35:                                               ; preds = %_ZN5faiss13InvertedLists9ScopedIdsD2Ev.exit, %.lr.ph
  %.1 = phi ptr [ %34, %_ZN5faiss13InvertedLists9ScopedIdsD2Ev.exit ], [ %.020, %.lr.ph ]
  %indvars.iv.next = add nuw nsw i64 %indvars.iv, 1
  %36 = load ptr, ptr %12, align 8, !tbaa !57
  %37 = load ptr, ptr %11, align 8, !tbaa !53
  %38 = ptrtoint ptr %36 to i64
  %39 = ptrtoint ptr %37 to i64
  %40 = sub i64 %38, %39
  %41 = ashr exact i64 %40, 3
  %42 = icmp ugt i64 %41, %indvars.iv.next
  br i1 %42, label %.lr.ph, label %._crit_edge, !llvm.loop !61
}